target datalayout = "e-m:e-p270:32:32-p271:32:32-p272:64:64-i64:64-i128:128-f80:128-n8:16:32:64-S128"
target triple = "x86_64-pc-linux-gnu"

%struct.List = type { i32, i32, i32, ptr, [0 x %union.ListCell] }
%union.ListCell = type { ptr }
%struct.ExplainState = type { ptr, i8, i8, i8, i8, i8, i8, i8, i8, i8, i8, i32, i32, i32, ptr, ptr, ptr, ptr, ptr, ptr, i8, i32, ptr }

@.str.47 = private unnamed_addr constant [5 x i8] c"%s: \00", align 1
@.str.52 = private unnamed_addr constant [3 x i8] c"- \00", align 1
@.str.59 = private unnamed_addr constant [3 x i8] c": \00", align 1

; Function Attrs: inlinehint nounwind uwtable
define internal ptr @list_nth_cell(ptr noundef %0, i32 noundef %1) #6 {
  %3 = alloca ptr, align 8
  %4 = alloca i32, align 4
  store ptr %0, ptr %3, align 8
  store i32 %1, ptr %4, align 4
  %5 = load ptr, ptr %3, align 8
  %6 = getelementptr inbounds nuw %struct.List, ptr %5, i32 0, i32 3
  %7 = load ptr, ptr %6, align 8
  %8 = load i32, ptr %4, align 4
  %9 = sext i32 %8 to i64
  %10 = getelementptr inbounds %union.ListCell, ptr %7, i64 %9
  ret ptr %10
}

; Function Attrs: nounwind uwtable
define internal void @ExplainYAMLLineStarting(ptr noundef %0) #0 {
  %2 = alloca ptr, align 8
  store ptr %0, ptr %2, align 8
  %3 = load ptr, ptr %2, align 8
  %4 = getelementptr inbounds nuw %struct.ExplainState, ptr %3, i32 0, i32 14
  %5 = load ptr, ptr %4, align 8
  %6 = call ptr @list_nth_cell(ptr noundef %5, i32 noundef 0)
  %7 = load i32, ptr %6, align 8
  %8 = icmp eq i32 %7, 0
  br i1 %8, label %9, label %14

9:                                                ; preds = %1
  %10 = load ptr, ptr %2, align 8
  %11 = getelementptr inbounds nuw %struct.ExplainState, ptr %10, i32 0, i32 14
  %12 = load ptr, ptr %11, align 8
  %13 = call ptr @list_nth_cell(ptr noundef %12, i32 noundef 0)
  store i32 1, ptr %13, align 8
  br label %25

14:                                               ; preds = %1
  %15 = load ptr, ptr %2, align 8
  %16 = getelementptr inbounds nuw %struct.ExplainState, ptr %15, i32 0, i32 0
  %17 = load ptr, ptr %16, align 8
  call void @appendStringInfoChar(ptr noundef %17, i8 noundef signext 10)
  %18 = load ptr, ptr %2, align 8
  %19 = getelementptr inbounds nuw %struct.ExplainState, ptr %18, i32 0, i32 0
  %20 = load ptr, ptr %19, align 8
  %21 = load ptr, ptr %2, align 8
  %22 = getelementptr inbounds nuw %struct.ExplainState, ptr %21, i32 0, i32 13
  %23 = load i32, ptr %22, align 4
  %24 = mul i32 %23, 2
  call void @appendStringInfoSpaces(ptr noundef %20, i32 noundef %24)
  br label %25

25:                                               ; preds = %14, %9
  ret void
}

; Function Attrs: nounwind uwtable
define internal void @ExplainJSONLineEnding(ptr noundef %0) #0 {
  %2 = alloca ptr, align 8
  store ptr %0, ptr %2, align 8
  %3 = load ptr, ptr %2, align 8
  %4 = getelementptr inbounds nuw %struct.ExplainState, ptr %3, i32 0, i32 14
  %5 = load ptr, ptr %4, align 8
  %6 = call ptr @list_nth_cell(ptr noundef %5, i32 noundef 0)
  %7 = load i32, ptr %6, align 8
  %8 = icmp ne i32 %7, 0
  br i1 %8, label %9, label %13

9:                                                ; preds = %1
  %10 = load ptr, ptr %2, align 8
  %11 = getelementptr inbounds nuw %struct.ExplainState, ptr %10, i32 0, i32 0
  %12 = load ptr, ptr %11, align 8
  call void @appendStringInfoChar(ptr noundef %12, i8 noundef signext 44)
  br label %18

13:                                               ; preds = %1
  %14 = load ptr, ptr %2, align 8
  %15 = getelementptr inbounds nuw %struct.ExplainState, ptr %14, i32 0, i32 14
  %16 = load ptr, ptr %15, align 8
  %17 = call ptr @list_nth_cell(ptr noundef %16, i32 noundef 0)
  store i32 1, ptr %17, align 8
  br label %18

18:                                               ; preds = %13, %9
  %19 = load ptr, ptr %2, align 8
  %20 = getelementptr inbounds nuw %struct.ExplainState, ptr %19, i32 0, i32 0
  %21 = load ptr, ptr %20, align 8
  call void @appendStringInfoChar(ptr noundef %21, i8 noundef signext 10)
  ret void
}

; Function Attrs: nounwind uwtable
define dso_local void @ExplainOpenGroup(ptr noundef %0, ptr noundef %1, i1 noundef zeroext %2, ptr noundef %3) #0 {
  %5 = alloca ptr, align 8
  %6 = alloca ptr, align 8
  %7 = alloca i8, align 1
  %8 = alloca ptr, align 8
  store ptr %0, ptr %5, align 8
  store ptr %1, ptr %6, align 8
  %9 = zext i1 %2 to i8
  store i8 %9, ptr %7, align 1
  store ptr %3, ptr %8, align 8
  %10 = load ptr, ptr %8, align 8
  %11 = getelementptr inbounds nuw %struct.ExplainState, ptr %10, i32 0, i32 12
  %12 = load i32, ptr %11, align 8
  switch i32 %12, label %87 [
    i32 0, label %87
    i32 1, label %13
    i32 2, label %20
    i32 3, label %57
  ]

13:                                               ; preds = %4
  %14 = load ptr, ptr %5, align 8
  %15 = load ptr, ptr %8, align 8
  call void @ExplainXMLTag(ptr noundef %14, i32 noundef 0, ptr noundef %15)
  %16 = load ptr, ptr %8, align 8
  %17 = getelementptr inbounds nuw %struct.ExplainState, ptr %16, i32 0, i32 13
  %18 = load i32, ptr %17, align 4
  %19 = add i32 %18, 1
  store i32 %19, ptr %17, align 4
  br label %87

20:                                               ; preds = %4
  %21 = load ptr, ptr %8, align 8
  call void @ExplainJSONLineEnding(ptr noundef %21)
  %22 = load ptr, ptr %8, align 8
  %23 = getelementptr inbounds nuw %struct.ExplainState, ptr %22, i32 0, i32 0
  %24 = load ptr, ptr %23, align 8
  %25 = load ptr, ptr %8, align 8
  %26 = getelementptr inbounds nuw %struct.ExplainState, ptr %25, i32 0, i32 13
  %27 = load i32, ptr %26, align 4
  %28 = mul i32 2, %27
  call void @appendStringInfoSpaces(ptr noundef %24, i32 noundef %28)
  %29 = load ptr, ptr %6, align 8
  %30 = icmp ne ptr %29, null
  br i1 %30, label %31, label %39

31:                                               ; preds = %20
  %32 = load ptr, ptr %8, align 8
  %33 = getelementptr inbounds nuw %struct.ExplainState, ptr %32, i32 0, i32 0
  %34 = load ptr, ptr %33, align 8
  %35 = load ptr, ptr %6, align 8
  call void @escape_json(ptr noundef %34, ptr noundef %35)
  %36 = load ptr, ptr %8, align 8
  %37 = getelementptr inbounds nuw %struct.ExplainState, ptr %36, i32 0, i32 0
  %38 = load ptr, ptr %37, align 8
  call void @appendStringInfoString(ptr noundef %38, ptr noundef @.str.59)
  br label %39

39:                                               ; preds = %31, %20
  %40 = load ptr, ptr %8, align 8
  %41 = getelementptr inbounds nuw %struct.ExplainState, ptr %40, i32 0, i32 0
  %42 = load ptr, ptr %41, align 8
  %43 = load i8, ptr %7, align 1, !range !6, !noundef !7
  %44 = trunc i8 %43 to i1
  %45 = select i1 %44, i32 123, i32 91
  %46 = trunc i32 %45 to i8
  call void @appendStringInfoChar(ptr noundef %42, i8 noundef signext %46)
  %47 = load ptr, ptr %8, align 8
  %48 = getelementptr inbounds nuw %struct.ExplainState, ptr %47, i32 0, i32 14
  %49 = load ptr, ptr %48, align 8
  %50 = call ptr @lcons_int(i32 noundef 0, ptr noundef %49)
  %51 = load ptr, ptr %8, align 8
  %52 = getelementptr inbounds nuw %struct.ExplainState, ptr %51, i32 0, i32 14
  store ptr %50, ptr %52, align 8
  %53 = load ptr, ptr %8, align 8
  %54 = getelementptr inbounds nuw %struct.ExplainState, ptr %53, i32 0, i32 13
  %55 = load i32, ptr %54, align 4
  %56 = add i32 %55, 1
  store i32 %56, ptr %54, align 4
  br label %87

57:                                               ; preds = %4
  %58 = load ptr, ptr %8, align 8
  call void @ExplainYAMLLineStarting(ptr noundef %58)
  %59 = load ptr, ptr %6, align 8
  %60 = icmp ne ptr %59, null
  br i1 %60, label %61, label %72

61:                                               ; preds = %57
  %62 = load ptr, ptr %8, align 8
  %63 = getelementptr inbounds nuw %struct.ExplainState, ptr %62, i32 0, i32 0
  %64 = load ptr, ptr %63, align 8
  %65 = load ptr, ptr %6, align 8
  call void (ptr, ptr, ...) @appendStringInfo(ptr noundef %64, ptr noundef @.str.47, ptr noundef %65)
  %66 = load ptr, ptr %8, align 8
  %67 = getelementptr inbounds nuw %struct.ExplainState, ptr %66, i32 0, i32 14
  %68 = load ptr, ptr %67, align 8
  %69 = call ptr @lcons_int(i32 noundef 1, ptr noundef %68)
  %70 = load ptr, ptr %8, align 8
  %71 = getelementptr inbounds nuw %struct.ExplainState, ptr %70, i32 0, i32 14
  store ptr %69, ptr %71, align 8
  br label %82

72:                                               ; preds = %57
  %73 = load ptr, ptr %8, align 8
  %74 = getelementptr inbounds nuw %struct.ExplainState, ptr %73, i32 0, i32 0
  %75 = load ptr, ptr %74, align 8
  call void @appendStringInfoString(ptr noundef %75, ptr noundef @.str.52)
  %76 = load ptr, ptr %8, align 8
  %77 = getelementptr inbounds nuw %struct.ExplainState, ptr %76, i32 0, i32 14
  %78 = load ptr, ptr %77, align 8
  %79 = call ptr @lcons_int(i32 noundef 0, ptr noundef %78)
  %80 = load ptr, ptr %8, align 8
  %81 = getelementptr inbounds nuw %struct.ExplainState, ptr %80, i32 0, i32 14
  store ptr %79, ptr %81, align 8
  br label %82

82:                                               ; preds = %72, %61
  %83 = load ptr, ptr %8, align 8
  %84 = getelementptr inbounds nuw %struct.ExplainState, ptr %83, i32 0, i32 13
  %85 = load i32, ptr %84, align 4
  %86 = add i32 %85, 1
  store i32 %86, ptr %84, align 4
  br label %87

87:                                               ; preds = %4, %82, %39, %13, %4
  ret void
}