; Function Attrs: nounwind uwtable
define dso_local void @ExplainOpenGroup(ptr noundef readonly captures(none) %0, ptr noundef %1, i1 noundef zeroext %2, ptr noundef captures(none) %3) local_unnamed_addr #0 {
  %5 = getelementptr inbounds nuw i8, ptr %3, i64 24
  %6 = load i32, ptr %5, align 8
  switch i32 %6, label %56 [
    i32 3, label %34
    i32 1, label %7
    i32 2, label %11
  ]

7:                                                ; preds = %4
  tail call fastcc void @ExplainXMLTag(ptr noundef %0, i32 noundef 0, ptr noundef nonnull %3)
  %8 = getelementptr inbounds nuw i8, ptr %3, i64 28
  %9 = load i32, ptr %8, align 4
  %10 = add i32 %9, 1
  store i32 %10, ptr %8, align 4
  br label %56

11:                                               ; preds = %4
  %12 = getelementptr inbounds nuw i8, ptr %3, i64 32
  %13 = load ptr, ptr %12, align 8
  %14 = getelementptr i8, ptr %13, i64 16
  %.val4.i = load ptr, ptr %14, align 8
  %15 = load i32, ptr %.val4.i, align 8
  %.not.i = icmp eq i32 %15, 0
  br i1 %.not.i, label %18, label %16

16:                                               ; preds = %11
  %17 = load ptr, ptr %3, align 8
  tail call void @appendStringInfoChar(ptr noundef %17, i8 noundef signext 44) #13
  br label %ExplainJSONLineEnding.exit

18:                                               ; preds = %11
  store i32 1, ptr %.val4.i, align 8
  br label %ExplainJSONLineEnding.exit

ExplainJSONLineEnding.exit:                       ; preds = %16, %18
  %19 = load ptr, ptr %3, align 8
  tail call void @appendStringInfoChar(ptr noundef %19, i8 noundef signext 10) #13
  %20 = load ptr, ptr %3, align 8
  %21 = getelementptr inbounds nuw i8, ptr %3, i64 28
  %22 = load i32, ptr %21, align 4
  %23 = shl i32 %22, 1
  tail call void @appendStringInfoSpaces(ptr noundef %20, i32 noundef %23) #13
  %.not = icmp eq ptr %1, null
  br i1 %.not, label %27, label %24

24:                                               ; preds = %ExplainJSONLineEnding.exit
  %25 = load ptr, ptr %3, align 8
  tail call void @escape_json(ptr noundef %25, ptr noundef nonnull %1) #13
  %26 = load ptr, ptr %3, align 8
  tail call void @appendStringInfoString(ptr noundef %26, ptr noundef nonnull @.str.59) #13
  br label %27

27:                                               ; preds = %24, %ExplainJSONLineEnding.exit
  %28 = load ptr, ptr %3, align 8
  %29 = select i1 %2, i8 123, i8 91
  tail call void @appendStringInfoChar(ptr noundef %28, i8 noundef signext %29) #13
  %30 = load ptr, ptr %12, align 8
  %31 = tail call ptr @lcons_int(i32 noundef 0, ptr noundef %30) #13
  store ptr %31, ptr %12, align 8
  %32 = load i32, ptr %21, align 4
  %33 = add i32 %32, 1
  store i32 %33, ptr %21, align 4
  br label %56

34:                                               ; preds = %4
  %35 = getelementptr inbounds nuw i8, ptr %3, i64 32
  %36 = load ptr, ptr %35, align 8
  %37 = getelementptr i8, ptr %36, i64 16
  %.val5.i = load ptr, ptr %37, align 8
  %38 = load i32, ptr %.val5.i, align 8
  %39 = icmp eq i32 %38, 0
  br i1 %39, label %40, label %41

40:                                               ; preds = %34
  store i32 1, ptr %.val5.i, align 8
  br label %ExplainYAMLLineStarting.exit

41:                                               ; preds = %34
  %42 = load ptr, ptr %3, align 8
  tail call void @appendStringInfoChar(ptr noundef %42, i8 noundef signext 10) #13
  %43 = load ptr, ptr %3, align 8
  %44 = getelementptr inbounds nuw i8, ptr %3, i64 28
  %45 = load i32, ptr %44, align 4
  %46 = shl i32 %45, 1
  tail call void @appendStringInfoSpaces(ptr noundef %43, i32 noundef %46) #13
  br label %ExplainYAMLLineStarting.exit

ExplainYAMLLineStarting.exit:                     ; preds = %40, %41
  %.not25 = icmp eq ptr %1, null
  %47 = load ptr, ptr %3, align 8
  br i1 %.not25, label %49, label %48

48:                                               ; preds = %ExplainYAMLLineStarting.exit
  tail call void (ptr, ptr, ...) @appendStringInfo(ptr noundef %47, ptr noundef nonnull @.str.47, ptr noundef nonnull %1) #13
  br label %50

49:                                               ; preds = %ExplainYAMLLineStarting.exit
  tail call void @appendStringInfoString(ptr noundef %47, ptr noundef nonnull @.str.52) #13
  br label %50

50:                                               ; preds = %49, %48
  %.sink = phi i32 [ 0, %49 ], [ 1, %48 ]
  %51 = load ptr, ptr %35, align 8
  %52 = tail call ptr @lcons_int(i32 noundef %.sink, ptr noundef %51) #13
  store ptr %52, ptr %35, align 8
  %53 = getelementptr inbounds nuw i8, ptr %3, i64 28
  %54 = load i32, ptr %53, align 4
  %55 = add i32 %54, 1
  store i32 %55, ptr %53, align 4
  br label %56

56:                                               ; preds = %50, %27, %7, %4
  ret void
}